target datalayout = "e-m:e-p270:32:32-p271:32:32-p272:64:64-i64:64-i128:128-f80:128-n8:16:32:64-S128"
target triple = "x86_64-pc-linux-gnu"

%struct.Smt_Prs_t_ = type { ptr, ptr, ptr, ptr, ptr, %struct.Vec_Int_t_, %struct.Vec_Wec_t_, i32, i32, %struct.Vec_Int_t_, [1000 x i8] }
%struct.Vec_Wec_t_ = type { i32, i32, ptr }
%struct.Vec_Int_t_ = type { i32, i32, ptr }

@.str.9 = private unnamed_addr constant [1 x i8] zeroinitializer, align 1
@.str.11 = private unnamed_addr constant [6 x i8] c"%*s(\0A\00", align 1
@.str.12 = private unnamed_addr constant [4 x i8] c"%*s\00", align 1
@.str.13 = private unnamed_addr constant [4 x i8] c"%s\0A\00", align 1
@.str.14 = private unnamed_addr constant [6 x i8] c"%*s)\0A\00", align 1

; Function Attrs: inlinehint nounwind uwtable
define internal i32 @Abc_Lit2Var(i32 noundef %0) #1 {
  %2 = alloca i32, align 4
  store i32 %0, ptr %2, align 4, !tbaa !10
  %3 = load i32, ptr %2, align 4, !tbaa !10
  %4 = ashr i32 %3, 1
  ret i32 %4
}

; Function Attrs: inlinehint nounwind uwtable
define internal i32 @Abc_LitIsCompl(i32 noundef %0) #1 {
  %2 = alloca i32, align 4
  store i32 %0, ptr %2, align 4, !tbaa !10
  %3 = load i32, ptr %2, align 4, !tbaa !10
  %4 = and i32 %3, 1
  ret i32 %4
}

; Function Attrs: inlinehint nounwind uwtable
define internal i32 @Vec_IntEntry(ptr noundef %0, i32 noundef %1) #1 {
  %3 = alloca ptr, align 8
  %4 = alloca i32, align 4
  store ptr %0, ptr %3, align 8, !tbaa !28
  store i32 %1, ptr %4, align 4, !tbaa !10
  %5 = load ptr, ptr %3, align 8, !tbaa !28
  %6 = getelementptr inbounds nuw %struct.Vec_Int_t_, ptr %5, i32 0, i32 2
  %7 = load ptr, ptr %6, align 8, !tbaa !34
  %8 = load i32, ptr %4, align 4, !tbaa !10
  %9 = sext i32 %8 to i64
  %10 = getelementptr inbounds i32, ptr %7, i64 %9
  %11 = load i32, ptr %10, align 4, !tbaa !10
  ret i32 %11
}

; Function Attrs: inlinehint nounwind uwtable
define internal i32 @Vec_IntSize(ptr noundef %0) #1 {
  %2 = alloca ptr, align 8
  store ptr %0, ptr %2, align 8, !tbaa !28
  %3 = load ptr, ptr %2, align 8, !tbaa !28
  %4 = getelementptr inbounds nuw %struct.Vec_Int_t_, ptr %3, i32 0, i32 1
  %5 = load i32, ptr %4, align 4, !tbaa !35
  ret i32 %5
}

; Function Attrs: inlinehint nounwind uwtable
define internal ptr @Vec_WecEntry(ptr noundef %0, i32 noundef %1) #1 {
  %3 = alloca ptr, align 8
  %4 = alloca i32, align 4
  store ptr %0, ptr %3, align 8, !tbaa !52
  store i32 %1, ptr %4, align 4, !tbaa !10
  %5 = load ptr, ptr %3, align 8, !tbaa !52
  %6 = getelementptr inbounds nuw %struct.Vec_Wec_t_, ptr %5, i32 0, i32 2
  %7 = load ptr, ptr %6, align 8, !tbaa !54
  %8 = load i32, ptr %4, align 4, !tbaa !10
  %9 = sext i32 %8 to i64
  %10 = getelementptr inbounds %struct.Vec_Int_t_, ptr %7, i64 %9
  ret ptr %10
}

; Function Attrs: nounwind uwtable
define void @Smt_PrsPrintParser_rec(ptr noundef %0, i32 noundef %1, i32 noundef %2) #0 {
  %4 = alloca ptr, align 8
  %5 = alloca i32, align 4
  %6 = alloca i32, align 4
  %7 = alloca ptr, align 8
  %8 = alloca i32, align 4
  %9 = alloca i32, align 4
  store ptr %0, ptr %4, align 8, !tbaa !8
  store i32 %1, ptr %5, align 4, !tbaa !10
  store i32 %2, ptr %6, align 4, !tbaa !10
  call void @llvm.lifetime.start.p0(i64 8, ptr %7) #11
  call void @llvm.lifetime.start.p0(i64 4, ptr %8) #11
  call void @llvm.lifetime.start.p0(i64 4, ptr %9) #11
  %10 = load i32, ptr %6, align 4, !tbaa !10
  %11 = call i32 (ptr, ...) @printf(ptr noundef @.str.11, i32 noundef %10, ptr noundef @.str.9)
  %12 = load ptr, ptr %4, align 8, !tbaa !8
  %13 = getelementptr inbounds nuw %struct.Smt_Prs_t_, ptr %12, i32 0, i32 6
  %14 = load i32, ptr %5, align 4, !tbaa !10
  %15 = call ptr @Vec_WecEntry(ptr noundef %13, i32 noundef %14)
  store ptr %15, ptr %7, align 8, !tbaa !28
  store i32 0, ptr %8, align 4, !tbaa !10
  br label %16

16:                                               ; preds = %49, %3
  %17 = load i32, ptr %8, align 4, !tbaa !10
  %18 = load ptr, ptr %7, align 8, !tbaa !28
  %19 = call i32 @Vec_IntSize(ptr noundef %18)
  %20 = icmp slt i32 %17, %19
  br i1 %20, label %21, label %25

21:                                               ; preds = %16
  %22 = load ptr, ptr %7, align 8, !tbaa !28
  %23 = load i32, ptr %8, align 4, !tbaa !10
  %24 = call i32 @Vec_IntEntry(ptr noundef %22, i32 noundef %23)
  store i32 %24, ptr %9, align 4, !tbaa !10
  br label %25

25:                                               ; preds = %21, %16
  %26 = phi i1 [ false, %16 ], [ true, %21 ]
  br i1 %26, label %27, label %52

27:                                               ; preds = %25
  %28 = load i32, ptr %9, align 4, !tbaa !10
  %29 = call i32 @Abc_LitIsCompl(i32 noundef %28)
  %30 = icmp ne i32 %29, 0
  br i1 %30, label %31, label %42

31:                                               ; preds = %27
  %32 = load i32, ptr %6, align 4, !tbaa !10
  %33 = add nsw i32 %32, 2
  %34 = call i32 (ptr, ...) @printf(ptr noundef @.str.12, i32 noundef %33, ptr noundef @.str.9)
  %35 = load ptr, ptr %4, align 8, !tbaa !8
  %36 = getelementptr inbounds nuw %struct.Smt_Prs_t_, ptr %35, i32 0, i32 4
  %37 = load ptr, ptr %36, align 8, !tbaa !14
  %38 = load i32, ptr %9, align 4, !tbaa !10
  %39 = call i32 @Abc_Lit2Var(i32 noundef %38)
  %40 = call ptr @Abc_NamStr(ptr noundef %37, i32 noundef %39)
  %41 = call i32 (ptr, ...) @printf(ptr noundef @.str.13, ptr noundef %40)
  br label %48

42:                                               ; preds = %27
  %43 = load ptr, ptr %4, align 8, !tbaa !8
  %44 = load i32, ptr %9, align 4, !tbaa !10
  %45 = call i32 @Abc_Lit2Var(i32 noundef %44)
  %46 = load i32, ptr %6, align 4, !tbaa !10
  %47 = add nsw i32 %46, 4
  call void @Smt_PrsPrintParser_rec(ptr noundef %43, i32 noundef %45, i32 noundef %47)
  br label %48

48:                                               ; preds = %42, %31
  br label %49

49:                                               ; preds = %48
  %50 = load i32, ptr %8, align 4, !tbaa !10
  %51 = add nsw i32 %50, 1
  store i32 %51, ptr %8, align 4, !tbaa !10
  br label %16, !llvm.loop !78

52:                                               ; preds = %25
  %53 = load i32, ptr %6, align 4, !tbaa !10
  %54 = call i32 (ptr, ...) @printf(ptr noundef @.str.14, i32 noundef %53, ptr noundef @.str.9)
  call void @llvm.lifetime.end.p0(i64 4, ptr %9) #11
  call void @llvm.lifetime.end.p0(i64 4, ptr %8) #11
  call void @llvm.lifetime.end.p0(i64 8, ptr %7) #11
  ret void
}