; Function Attrs: nounwind uwtable
define void @Smt_PrsPrintParser_rec(ptr noundef readonly captures(none) %0, i32 noundef %1, i32 noundef %2) local_unnamed_addr #0 {
  %4 = tail call i32 (ptr, ...) @printf(ptr noundef nonnull dereferenceable(1) @.str.11, i32 noundef %2, ptr noundef nonnull @.str.9)
  %5 = getelementptr i8, ptr %0, i64 64
  %.val16 = load ptr, ptr %5, align 8, !tbaa !22
  %6 = sext i32 %1 to i64
  %7 = getelementptr inbounds %struct.Vec_Int_t_, ptr %.val16, i64 %6
  %8 = getelementptr i8, ptr %7, i64 4
  %.val1517 = load i32, ptr %8, align 4, !tbaa !25
  %9 = icmp sgt i32 %.val1517, 0
  br i1 %9, label %.lr.ph, label %.critedge

.lr.ph:                                           ; preds = %3
  %10 = getelementptr i8, ptr %7, i64 8
  %11 = add nsw i32 %2, 2
  %12 = getelementptr inbounds nuw i8, ptr %0, i64 32
  %13 = add nsw i32 %2, 4
  br label %14

14:                                               ; preds = %.lr.ph, %25
  %indvars.iv = phi i64 [ 0, %.lr.ph ], [ %indvars.iv.next, %25 ]
  %.val = load ptr, ptr %10, align 8, !tbaa !23
  %15 = getelementptr inbounds nuw i32, ptr %.val, i64 %indvars.iv
  %16 = load i32, ptr %15, align 4, !tbaa !24
  %17 = and i32 %16, 1
  %.not = icmp eq i32 %17, 0
  br i1 %.not, label %23, label %18

18:                                               ; preds = %14
  %19 = tail call i32 (ptr, ...) @printf(ptr noundef nonnull dereferenceable(1) @.str.12, i32 noundef %11, ptr noundef nonnull @.str.9)
  %20 = load ptr, ptr %12, align 8, !tbaa !3
  %21 = ashr i32 %16, 1
  %22 = tail call ptr @Abc_NamStr(ptr noundef %20, i32 noundef %21) #20
  %puts = tail call i32 @puts(ptr nonnull dereferenceable(1) %22)
  br label %25

23:                                               ; preds = %14
  %24 = ashr exact i32 %16, 1
  tail call void @Smt_PrsPrintParser_rec(ptr noundef %0, i32 noundef %24, i32 noundef %13)
  br label %25

25:                                               ; preds = %18, %23
  %indvars.iv.next = add nuw nsw i64 %indvars.iv, 1
  %.val15 = load i32, ptr %8, align 4, !tbaa !25
  %26 = sext i32 %.val15 to i64
  %27 = icmp slt i64 %indvars.iv.next, %26
  br i1 %27, label %14, label %.critedge, !llvm.loop !76

.critedge:                                        ; preds = %25, %3
  %28 = tail call i32 (ptr, ...) @printf(ptr noundef nonnull dereferenceable(1) @.str.14, i32 noundef %2, ptr noundef nonnull @.str.9)
  ret void
}